; Function Attrs: mustprogress nofree norecurse nosync nounwind memory(readwrite, inaccessiblemem: none) uwtable
define void @_ZN6google8protobuf8internal20RepeatedPtrFieldBase8CloseGapEii(ptr noundef nonnull align 8 captures(none) dereferenceable(24) %0, i32 noundef %1, i32 noundef %2) local_unnamed_addr #12 align 2 {
  %4 = getelementptr inbounds nuw i8, ptr %0, i64 16
  %5 = load ptr, ptr %4, align 8, !tbaa !135
  %6 = icmp eq ptr %5, null
  br i1 %6, label %27, label %7

7:                                                ; preds = %3
  %8 = add nsw i32 %2, %1
  %9 = load i32, ptr %5, align 8, !tbaa !136
  %10 = icmp slt i32 %8, %9
  br i1 %10, label %.lr.ph.preheader, label %._crit_edge

.lr.ph.preheader:                                 ; preds = %7
  %11 = sext i32 %8 to i64
  %12 = sext i32 %2 to i64
  br label %.lr.ph

._crit_edge:                                      ; preds = %.lr.ph, %7
  %.lcssa9 = phi ptr [ %5, %7 ], [ %23, %.lr.ph ]
  %.lcssa = phi i32 [ %9, %7 ], [ %24, %.lr.ph ]
  %13 = getelementptr inbounds nuw i8, ptr %0, i64 8
  %14 = load i32, ptr %13, align 8, !tbaa !134
  %15 = sub nsw i32 %14, %2
  store i32 %15, ptr %13, align 8, !tbaa !134
  %16 = sub nsw i32 %.lcssa, %2
  store i32 %16, ptr %.lcssa9, align 8, !tbaa !136
  br label %27

.lr.ph:                                           ; preds = %.lr.ph.preheader, %.lr.ph
  %indvars.iv = phi i64 [ %11, %.lr.ph.preheader ], [ %indvars.iv.next, %.lr.ph ]
  %17 = phi ptr [ %5, %.lr.ph.preheader ], [ %23, %.lr.ph ]
  %18 = getelementptr inbounds nuw i8, ptr %17, i64 8
  %19 = getelementptr inbounds [268435454 x ptr], ptr %18, i64 0, i64 %indvars.iv
  %20 = load ptr, ptr %19, align 8, !tbaa !11
  %21 = sub nsw i64 %indvars.iv, %12
  %22 = getelementptr inbounds [268435454 x ptr], ptr %18, i64 0, i64 %21
  store ptr %20, ptr %22, align 8, !tbaa !11
  %indvars.iv.next = add nsw i64 %indvars.iv, 1
  %23 = load ptr, ptr %4, align 8, !tbaa !135
  %24 = load i32, ptr %23, align 8, !tbaa !136
  %25 = sext i32 %24 to i64
  %26 = icmp slt i64 %indvars.iv.next, %25
  br i1 %26, label %.lr.ph, label %._crit_edge, !llvm.loop !149

27:                                               ; preds = %3, %._crit_edge
  ret void
}